target datalayout = "e-m:e-p270:32:32-p271:32:32-p272:64:64-i64:64-i128:128-f80:128-n8:16:32:64-S128"
target triple = "x86_64-pc-linux-gnu"

%struct.diff_queue_struct = type { ptr, i32, i32 }
%struct.diff_filepair = type { ptr, ptr, i16, i8, i8 }
%struct.diff_filespec = type { %struct.object_id, ptr, ptr, ptr, i64, i32, i32, i16, i16, ptr }
%struct.object_id = type { [32 x i8], i32 }

@diff_queued_diff = external global %struct.diff_queue_struct, align 8
@.str = private unnamed_addr constant [27 x i8] c"internal error in merge #1\00", align 1
@.str.1 = private unnamed_addr constant [27 x i8] c"internal error in merge #2\00", align 1
@.str.2 = private unnamed_addr constant [27 x i8] c"internal error in merge #3\00", align 1
@.str.3 = private unnamed_addr constant [27 x i8] c"internal error in merge #4\00", align 1

; Function Attrs: nounwind uwtable
define internal void @merge_broken(ptr noundef %0, ptr noundef %1, ptr noundef %2) #0 {
  %4 = alloca ptr, align 8
  %5 = alloca ptr, align 8
  %6 = alloca ptr, align 8
  %7 = alloca ptr, align 8
  %8 = alloca ptr, align 8
  %9 = alloca ptr, align 8
  store ptr %0, ptr %4, align 8, !tbaa !17
  store ptr %1, ptr %5, align 8, !tbaa !17
  store ptr %2, ptr %6, align 8, !tbaa !11
  call void @llvm.lifetime.start.p0(i64 8, ptr %7) #9
  %10 = load ptr, ptr %4, align 8, !tbaa !17
  store ptr %10, ptr %7, align 8, !tbaa !17
  call void @llvm.lifetime.start.p0(i64 8, ptr %8) #9
  %11 = load ptr, ptr %5, align 8, !tbaa !17
  store ptr %11, ptr %8, align 8, !tbaa !17
  call void @llvm.lifetime.start.p0(i64 8, ptr %9) #9
  %12 = load ptr, ptr %4, align 8, !tbaa !17
  %13 = getelementptr inbounds nuw %struct.diff_filepair, ptr %12, i32 0, i32 0
  %14 = load ptr, ptr %13, align 8, !tbaa !19
  %15 = getelementptr inbounds nuw %struct.diff_filespec, ptr %14, i32 0, i32 7
  %16 = load i16, ptr %15, align 8, !tbaa !23
  %17 = zext i16 %16 to i32
  %18 = icmp ne i32 %17, 0
  br i1 %18, label %19, label %22

19:                                               ; preds = %3
  %20 = load ptr, ptr %4, align 8, !tbaa !17
  store ptr %20, ptr %8, align 8, !tbaa !17
  %21 = load ptr, ptr %5, align 8, !tbaa !17
  store ptr %21, ptr %7, align 8, !tbaa !17
  br label %22

22:                                               ; preds = %19, %3
  %23 = load ptr, ptr %8, align 8, !tbaa !17
  %24 = getelementptr inbounds nuw %struct.diff_filepair, ptr %23, i32 0, i32 0
  %25 = load ptr, ptr %24, align 8, !tbaa !19
  %26 = getelementptr inbounds nuw %struct.diff_filespec, ptr %25, i32 0, i32 7
  %27 = load i16, ptr %26, align 8, !tbaa !23
  %28 = zext i16 %27 to i32
  %29 = icmp ne i32 %28, 0
  br i1 %29, label %31, label %30

30:                                               ; preds = %22
  call void (ptr, ...) @die(ptr noundef @.str) #11
  unreachable

31:                                               ; preds = %22
  %32 = load ptr, ptr %8, align 8, !tbaa !17
  %33 = getelementptr inbounds nuw %struct.diff_filepair, ptr %32, i32 0, i32 1
  %34 = load ptr, ptr %33, align 8, !tbaa !29
  %35 = getelementptr inbounds nuw %struct.diff_filespec, ptr %34, i32 0, i32 7
  %36 = load i16, ptr %35, align 8, !tbaa !23
  %37 = zext i16 %36 to i32
  %38 = icmp ne i32 %37, 0
  br i1 %38, label %39, label %40

39:                                               ; preds = %31
  call void (ptr, ...) @die(ptr noundef @.str.1) #11
  unreachable

40:                                               ; preds = %31
  %41 = load ptr, ptr %7, align 8, !tbaa !17
  %42 = getelementptr inbounds nuw %struct.diff_filepair, ptr %41, i32 0, i32 0
  %43 = load ptr, ptr %42, align 8, !tbaa !19
  %44 = getelementptr inbounds nuw %struct.diff_filespec, ptr %43, i32 0, i32 7
  %45 = load i16, ptr %44, align 8, !tbaa !23
  %46 = zext i16 %45 to i32
  %47 = icmp ne i32 %46, 0
  br i1 %47, label %48, label %49

48:                                               ; preds = %40
  call void (ptr, ...) @die(ptr noundef @.str.2) #11
  unreachable

49:                                               ; preds = %40
  %50 = load ptr, ptr %7, align 8, !tbaa !17
  %51 = getelementptr inbounds nuw %struct.diff_filepair, ptr %50, i32 0, i32 1
  %52 = load ptr, ptr %51, align 8, !tbaa !29
  %53 = getelementptr inbounds nuw %struct.diff_filespec, ptr %52, i32 0, i32 7
  %54 = load i16, ptr %53, align 8, !tbaa !23
  %55 = zext i16 %54 to i32
  %56 = icmp ne i32 %55, 0
  br i1 %56, label %58, label %57

57:                                               ; preds = %49
  call void (ptr, ...) @die(ptr noundef @.str.3) #11
  unreachable

58:                                               ; preds = %49
  %59 = load ptr, ptr %6, align 8, !tbaa !11
  %60 = load ptr, ptr %8, align 8, !tbaa !17
  %61 = getelementptr inbounds nuw %struct.diff_filepair, ptr %60, i32 0, i32 0
  %62 = load ptr, ptr %61, align 8, !tbaa !19
  %63 = load ptr, ptr %7, align 8, !tbaa !17
  %64 = getelementptr inbounds nuw %struct.diff_filepair, ptr %63, i32 0, i32 1
  %65 = load ptr, ptr %64, align 8, !tbaa !29
  %66 = call ptr @diff_queue(ptr noundef %59, ptr noundef %62, ptr noundef %65)
  store ptr %66, ptr %9, align 8, !tbaa !17
  %67 = load ptr, ptr %4, align 8, !tbaa !17
  %68 = getelementptr inbounds nuw %struct.diff_filepair, ptr %67, i32 0, i32 2
  %69 = load i16, ptr %68, align 8, !tbaa !32
  %70 = load ptr, ptr %9, align 8, !tbaa !17
  %71 = getelementptr inbounds nuw %struct.diff_filepair, ptr %70, i32 0, i32 2
  store i16 %69, ptr %71, align 8, !tbaa !32
  %72 = load ptr, ptr %8, align 8, !tbaa !17
  %73 = getelementptr inbounds nuw %struct.diff_filepair, ptr %72, i32 0, i32 0
  %74 = load ptr, ptr %73, align 8, !tbaa !19
  %75 = getelementptr inbounds nuw %struct.diff_filespec, ptr %74, i32 0, i32 6
  %76 = load i32, ptr %75, align 4, !tbaa !46
  %77 = add nsw i32 %76, 1
  store i32 %77, ptr %75, align 4, !tbaa !46
  %78 = load ptr, ptr %8, align 8, !tbaa !17
  %79 = getelementptr inbounds nuw %struct.diff_filepair, ptr %78, i32 0, i32 1
  %80 = load ptr, ptr %79, align 8, !tbaa !29
  call void @free_filespec(ptr noundef %80)
  %81 = load ptr, ptr %7, align 8, !tbaa !17
  %82 = getelementptr inbounds nuw %struct.diff_filepair, ptr %81, i32 0, i32 0
  %83 = load ptr, ptr %82, align 8, !tbaa !19
  call void @free_filespec(ptr noundef %83)
  %84 = load ptr, ptr %8, align 8, !tbaa !17
  call void @free(ptr noundef %84) #9
  %85 = load ptr, ptr %7, align 8, !tbaa !17
  call void @free(ptr noundef %85) #9
  call void @llvm.lifetime.end.p0(i64 8, ptr %9) #9
  call void @llvm.lifetime.end.p0(i64 8, ptr %8) #9
  call void @llvm.lifetime.end.p0(i64 8, ptr %7) #9
  ret void
}

; Function Attrs: nounwind uwtable
define dso_local void @diffcore_merge_broken() #0 {
  %1 = alloca ptr, align 8
  %2 = alloca %struct.diff_queue_struct, align 8
  %3 = alloca i32, align 4
  %4 = alloca i32, align 4
  %5 = alloca ptr, align 8
  %6 = alloca i32, align 4
  %7 = alloca ptr, align 8
  call void @llvm.lifetime.start.p0(i64 8, ptr %1) #9
  store ptr @diff_queued_diff, ptr %1, align 8, !tbaa !11
  call void @llvm.lifetime.start.p0(i64 16, ptr %2) #9
  call void @llvm.memset.p0.i64(ptr align 8 %2, i8 0, i64 16, i1 false)
  call void @llvm.lifetime.start.p0(i64 4, ptr %3) #9
  call void @llvm.lifetime.start.p0(i64 4, ptr %4) #9
  store i32 0, ptr %3, align 4, !tbaa !9
  br label %8

8:                                                ; preds = %120, %0
  %9 = load i32, ptr %3, align 4, !tbaa !9
  %10 = load ptr, ptr %1, align 8, !tbaa !11
  %11 = getelementptr inbounds nuw %struct.diff_queue_struct, ptr %10, i32 0, i32 2
  %12 = load i32, ptr %11, align 4, !tbaa !13
  %13 = icmp slt i32 %9, %12
  br i1 %13, label %14, label %123

14:                                               ; preds = %8
  call void @llvm.lifetime.start.p0(i64 8, ptr %5) #9
  %15 = load ptr, ptr %1, align 8, !tbaa !11
  %16 = getelementptr inbounds nuw %struct.diff_queue_struct, ptr %15, i32 0, i32 0
  %17 = load ptr, ptr %16, align 8, !tbaa !16
  %18 = load i32, ptr %3, align 4, !tbaa !9
  %19 = sext i32 %18 to i64
  %20 = getelementptr inbounds ptr, ptr %17, i64 %19
  %21 = load ptr, ptr %20, align 8, !tbaa !17
  store ptr %21, ptr %5, align 8, !tbaa !17
  %22 = load ptr, ptr %5, align 8, !tbaa !17
  %23 = icmp ne ptr %22, null
  br i1 %23, label %25, label %24

24:                                               ; preds = %14
  store i32 4, ptr %6, align 4
  br label %117

25:                                               ; preds = %14
  %26 = load ptr, ptr %5, align 8, !tbaa !17
  %27 = getelementptr inbounds nuw %struct.diff_filepair, ptr %26, i32 0, i32 4
  %28 = load i8, ptr %27, align 1
  %29 = and i8 %28, 1
  %30 = zext i8 %29 to i32
  %31 = icmp ne i32 %30, 0
  br i1 %31, label %32, label %112

32:                                               ; preds = %25
  %33 = load ptr, ptr %5, align 8, !tbaa !17
  %34 = getelementptr inbounds nuw %struct.diff_filepair, ptr %33, i32 0, i32 0
  %35 = load ptr, ptr %34, align 8, !tbaa !19
  %36 = getelementptr inbounds nuw %struct.diff_filespec, ptr %35, i32 0, i32 1
  %37 = load ptr, ptr %36, align 8, !tbaa !30
  %38 = load ptr, ptr %5, align 8, !tbaa !17
  %39 = getelementptr inbounds nuw %struct.diff_filepair, ptr %38, i32 0, i32 1
  %40 = load ptr, ptr %39, align 8, !tbaa !29
  %41 = getelementptr inbounds nuw %struct.diff_filespec, ptr %40, i32 0, i32 1
  %42 = load ptr, ptr %41, align 8, !tbaa !30
  %43 = call i32 @strcmp(ptr noundef %37, ptr noundef %42) #10
  %44 = icmp ne i32 %43, 0
  br i1 %44, label %112, label %45

45:                                               ; preds = %32
  %46 = load i32, ptr %3, align 4, !tbaa !9
  %47 = add nsw i32 %46, 1
  store i32 %47, ptr %4, align 4, !tbaa !9
  br label %48

48:                                               ; preds = %107, %45
  %49 = load i32, ptr %4, align 4, !tbaa !9
  %50 = load ptr, ptr %1, align 8, !tbaa !11
  %51 = getelementptr inbounds nuw %struct.diff_queue_struct, ptr %50, i32 0, i32 2
  %52 = load i32, ptr %51, align 4, !tbaa !13
  %53 = icmp slt i32 %49, %52
  br i1 %53, label %54, label %110

54:                                               ; preds = %48
  call void @llvm.lifetime.start.p0(i64 8, ptr %7) #9
  %55 = load ptr, ptr %1, align 8, !tbaa !11
  %56 = getelementptr inbounds nuw %struct.diff_queue_struct, ptr %55, i32 0, i32 0
  %57 = load ptr, ptr %56, align 8, !tbaa !16
  %58 = load i32, ptr %4, align 4, !tbaa !9
  %59 = sext i32 %58 to i64
  %60 = getelementptr inbounds ptr, ptr %57, i64 %59
  %61 = load ptr, ptr %60, align 8, !tbaa !17
  store ptr %61, ptr %7, align 8, !tbaa !17
  %62 = load ptr, ptr %7, align 8, !tbaa !17
  %63 = getelementptr inbounds nuw %struct.diff_filepair, ptr %62, i32 0, i32 4
  %64 = load i8, ptr %63, align 1
  %65 = and i8 %64, 1
  %66 = zext i8 %65 to i32
  %67 = icmp ne i32 %66, 0
  br i1 %67, label %68, label %103

68:                                               ; preds = %54
  %69 = load ptr, ptr %7, align 8, !tbaa !17
  %70 = getelementptr inbounds nuw %struct.diff_filepair, ptr %69, i32 0, i32 0
  %71 = load ptr, ptr %70, align 8, !tbaa !19
  %72 = getelementptr inbounds nuw %struct.diff_filespec, ptr %71, i32 0, i32 1
  %73 = load ptr, ptr %72, align 8, !tbaa !30
  %74 = load ptr, ptr %7, align 8, !tbaa !17
  %75 = getelementptr inbounds nuw %struct.diff_filepair, ptr %74, i32 0, i32 1
  %76 = load ptr, ptr %75, align 8, !tbaa !29
  %77 = getelementptr inbounds nuw %struct.diff_filespec, ptr %76, i32 0, i32 1
  %78 = load ptr, ptr %77, align 8, !tbaa !30
  %79 = call i32 @strcmp(ptr noundef %73, ptr noundef %78) #10
  %80 = icmp ne i32 %79, 0
  br i1 %80, label %103, label %81

81:                                               ; preds = %68
  %82 = load ptr, ptr %5, align 8, !tbaa !17
  %83 = getelementptr inbounds nuw %struct.diff_filepair, ptr %82, i32 0, i32 0
  %84 = load ptr, ptr %83, align 8, !tbaa !19
  %85 = getelementptr inbounds nuw %struct.diff_filespec, ptr %84, i32 0, i32 1
  %86 = load ptr, ptr %85, align 8, !tbaa !30
  %87 = load ptr, ptr %7, align 8, !tbaa !17
  %88 = getelementptr inbounds nuw %struct.diff_filepair, ptr %87, i32 0, i32 1
  %89 = load ptr, ptr %88, align 8, !tbaa !29
  %90 = getelementptr inbounds nuw %struct.diff_filespec, ptr %89, i32 0, i32 1
  %91 = load ptr, ptr %90, align 8, !tbaa !30
  %92 = call i32 @strcmp(ptr noundef %86, ptr noundef %91) #10
  %93 = icmp ne i32 %92, 0
  br i1 %93, label %103, label %94

94:                                               ; preds = %81
  %95 = load ptr, ptr %5, align 8, !tbaa !17
  %96 = load ptr, ptr %7, align 8, !tbaa !17
  call void @merge_broken(ptr noundef %95, ptr noundef %96, ptr noundef %2)
  %97 = load ptr, ptr %1, align 8, !tbaa !11
  %98 = getelementptr inbounds nuw %struct.diff_queue_struct, ptr %97, i32 0, i32 0
  %99 = load ptr, ptr %98, align 8, !tbaa !16
  %100 = load i32, ptr %4, align 4, !tbaa !9
  %101 = sext i32 %100 to i64
  %102 = getelementptr inbounds ptr, ptr %99, i64 %101
  store ptr null, ptr %102, align 8, !tbaa !17
  store i32 8, ptr %6, align 4
  br label %104

103:                                              ; preds = %81, %68, %54
  store i32 0, ptr %6, align 4
  br label %104

104:                                              ; preds = %94, %103
  call void @llvm.lifetime.end.p0(i64 8, ptr %7) #9
  %105 = load i32, ptr %6, align 4
  switch i32 %105, label %117 [
    i32 0, label %106
    i32 8, label %116
  ]

106:                                              ; preds = %104
  br label %107

107:                                              ; preds = %106
  %108 = load i32, ptr %4, align 4, !tbaa !9
  %109 = add nsw i32 %108, 1
  store i32 %109, ptr %4, align 4, !tbaa !9
  br label %48, !llvm.loop !44

110:                                              ; preds = %48
  %111 = load ptr, ptr %5, align 8, !tbaa !17
  call void @diff_q(ptr noundef %2, ptr noundef %111)
  br label %114

112:                                              ; preds = %32, %25
  %113 = load ptr, ptr %5, align 8, !tbaa !17
  call void @diff_q(ptr noundef %2, ptr noundef %113)
  br label %114

114:                                              ; preds = %112, %110
  br label %115

115:                                              ; preds = %114
  br label %116

116:                                              ; preds = %115, %104
  store i32 0, ptr %6, align 4
  br label %117

117:                                              ; preds = %116, %104, %24
  call void @llvm.lifetime.end.p0(i64 8, ptr %5) #9
  %118 = load i32, ptr %6, align 4
  switch i32 %118, label %128 [
    i32 0, label %119
    i32 4, label %120
  ]

119:                                              ; preds = %117
  br label %120

120:                                              ; preds = %119, %117
  %121 = load i32, ptr %3, align 4, !tbaa !9
  %122 = add nsw i32 %121, 1
  store i32 %122, ptr %3, align 4, !tbaa !9
  br label %8, !llvm.loop !45

123:                                              ; preds = %8
  %124 = load ptr, ptr %1, align 8, !tbaa !11
  %125 = getelementptr inbounds nuw %struct.diff_queue_struct, ptr %124, i32 0, i32 0
  %126 = load ptr, ptr %125, align 8, !tbaa !16
  call void @free(ptr noundef %126) #9
  %127 = load ptr, ptr %1, align 8, !tbaa !11
  call void @llvm.memcpy.p0.p0.i64(ptr align 8 %127, ptr align 8 %2, i64 16, i1 false), !tbaa.struct !35
  store i32 1, ptr %6, align 4
  call void @llvm.lifetime.end.p0(i64 4, ptr %4) #9
  call void @llvm.lifetime.end.p0(i64 4, ptr %3) #9
  call void @llvm.lifetime.end.p0(i64 16, ptr %2) #9
  call void @llvm.lifetime.end.p0(i64 8, ptr %1) #9
  ret void

128:                                              ; preds = %117
  unreachable
}