; Function Attrs: nounwind uwtable
define dso_local void @diffcore_merge_broken() local_unnamed_addr #0 {
  %1 = alloca %struct.diff_queue_struct, align 8
  call void @llvm.lifetime.start.p0(i64 16, ptr nonnull %1) #10
  call void @llvm.memset.p0.i64(ptr noundef nonnull align 8 dereferenceable(16) %1, i8 0, i64 16, i1 false)
  %2 = load i32, ptr getelementptr inbounds nuw (i8, ptr @diff_queued_diff, i64 12), align 4, !tbaa !4
  %3 = icmp sgt i32 %2, 0
  br i1 %3, label %.lr.ph46, label %._crit_edge47

.lr.ph46:                                         ; preds = %0, %79
  %4 = phi i32 [ %80, %79 ], [ %2, %0 ]
  %indvars.iv55 = phi i64 [ %indvars.iv.next56, %79 ], [ 0, %0 ]
  %indvars.iv = phi i64 [ %indvars.iv.next, %79 ], [ 1, %0 ]
  %5 = load ptr, ptr @diff_queued_diff, align 8, !tbaa !11
  %6 = getelementptr inbounds nuw ptr, ptr %5, i64 %indvars.iv55
  %7 = load ptr, ptr %6, align 8, !tbaa !12
  %.not = icmp eq ptr %7, null
  br i1 %.not, label %79, label %8

8:                                                ; preds = %.lr.ph46
  %9 = getelementptr inbounds nuw i8, ptr %7, i64 19
  %10 = load i8, ptr %9, align 1
  %11 = and i8 %10, 1
  %.not31 = icmp eq i8 %11, 0
  br i1 %.not31, label %78, label %12

12:                                               ; preds = %8
  %13 = load ptr, ptr %7, align 8, !tbaa !14
  %14 = getelementptr inbounds nuw i8, ptr %13, i64 40
  %15 = load ptr, ptr %14, align 8, !tbaa !25
  %16 = getelementptr inbounds nuw i8, ptr %7, i64 8
  %17 = load ptr, ptr %16, align 8, !tbaa !24
  %18 = getelementptr inbounds nuw i8, ptr %17, i64 40
  %19 = load ptr, ptr %18, align 8, !tbaa !25
  %20 = call i32 @strcmp(ptr noundef nonnull dereferenceable(1) %15, ptr noundef nonnull dereferenceable(1) %19) #11
  %.not32 = icmp eq i32 %20, 0
  br i1 %.not32, label %.preheader, label %78

.preheader:                                       ; preds = %12
  %21 = add nuw nsw i64 %indvars.iv55, 1
  %22 = sext i32 %4 to i64
  %23 = icmp slt i64 %21, %22
  br i1 %23, label %.lr.ph, label %._crit_edge

.lr.ph:                                           ; preds = %.preheader
  %wide.trip.count = zext i32 %4 to i64
  br label %24

24:                                               ; preds = %.lr.ph, %77
  %indvars.iv52 = phi i64 [ %indvars.iv, %.lr.ph ], [ %indvars.iv.next53, %77 ]
  %25 = getelementptr inbounds nuw ptr, ptr %5, i64 %indvars.iv52
  %26 = load ptr, ptr %25, align 8, !tbaa !12
  %27 = getelementptr inbounds nuw i8, ptr %26, i64 19
  %28 = load i8, ptr %27, align 1
  %29 = and i8 %28, 1
  %.not33 = icmp eq i8 %29, 0
  br i1 %.not33, label %77, label %30

30:                                               ; preds = %24
  %31 = load ptr, ptr %26, align 8, !tbaa !14
  %32 = getelementptr inbounds nuw i8, ptr %31, i64 40
  %33 = load ptr, ptr %32, align 8, !tbaa !25
  %34 = getelementptr inbounds nuw i8, ptr %26, i64 8
  %35 = load ptr, ptr %34, align 8, !tbaa !24
  %36 = getelementptr inbounds nuw i8, ptr %35, i64 40
  %37 = load ptr, ptr %36, align 8, !tbaa !25
  %38 = call i32 @strcmp(ptr noundef nonnull dereferenceable(1) %33, ptr noundef nonnull dereferenceable(1) %37) #11
  %.not34 = icmp eq i32 %38, 0
  br i1 %.not34, label %39, label %77

39:                                               ; preds = %30
  %40 = call i32 @strcmp(ptr noundef nonnull dereferenceable(1) %15, ptr noundef nonnull dereferenceable(1) %37) #11
  %.not35 = icmp eq i32 %40, 0
  br i1 %.not35, label %41, label %77

41:                                               ; preds = %39
  %42 = getelementptr inbounds nuw i8, ptr %13, i64 80
  %43 = load i16, ptr %42, align 8, !tbaa !18
  %.not.i = icmp eq i16 %43, 0
  %spec.select.i = select i1 %.not.i, ptr %26, ptr %7
  %spec.select24.i = select i1 %.not.i, ptr %7, ptr %26
  %44 = load ptr, ptr %spec.select.i, align 8, !tbaa !14
  %45 = getelementptr inbounds nuw i8, ptr %44, i64 80
  %46 = load i16, ptr %45, align 8, !tbaa !18
  %.not20.i = icmp eq i16 %46, 0
  br i1 %.not20.i, label %47, label %48

47:                                               ; preds = %41
  call void (ptr, ...) @die(ptr noundef nonnull @.str) #12
  unreachable

48:                                               ; preds = %41
  %49 = getelementptr inbounds nuw i8, ptr %spec.select.i, i64 8
  %50 = load ptr, ptr %49, align 8, !tbaa !24
  %51 = getelementptr inbounds nuw i8, ptr %50, i64 80
  %52 = load i16, ptr %51, align 8, !tbaa !18
  %.not21.i = icmp eq i16 %52, 0
  br i1 %.not21.i, label %54, label %53

53:                                               ; preds = %48
  call void (ptr, ...) @die(ptr noundef nonnull @.str.1) #12
  unreachable

54:                                               ; preds = %48
  %55 = load ptr, ptr %spec.select24.i, align 8, !tbaa !14
  %56 = getelementptr inbounds nuw i8, ptr %55, i64 80
  %57 = load i16, ptr %56, align 8, !tbaa !18
  %.not22.i = icmp eq i16 %57, 0
  br i1 %.not22.i, label %59, label %58

58:                                               ; preds = %54
  call void (ptr, ...) @die(ptr noundef nonnull @.str.2) #12
  unreachable

59:                                               ; preds = %54
  %60 = getelementptr inbounds nuw i8, ptr %spec.select24.i, i64 8
  %61 = load ptr, ptr %60, align 8, !tbaa !24
  %62 = getelementptr inbounds nuw i8, ptr %61, i64 80
  %63 = load i16, ptr %62, align 8, !tbaa !18
  %.not23.i = icmp eq i16 %63, 0
  br i1 %.not23.i, label %64, label %.thread

64:                                               ; preds = %59
  call void (ptr, ...) @die(ptr noundef nonnull @.str.3) #12
  unreachable

.thread:                                          ; preds = %59
  %65 = call ptr @diff_queue(ptr noundef nonnull %1, ptr noundef nonnull %44, ptr noundef nonnull %61) #10
  %66 = getelementptr inbounds nuw i8, ptr %7, i64 16
  %67 = load i16, ptr %66, align 8, !tbaa !33
  %68 = getelementptr inbounds nuw i8, ptr %65, i64 16
  store i16 %67, ptr %68, align 8, !tbaa !33
  %69 = load ptr, ptr %spec.select.i, align 8, !tbaa !14
  %70 = getelementptr inbounds nuw i8, ptr %69, i64 76
  %71 = load i32, ptr %70, align 4, !tbaa !39
  %72 = add nsw i32 %71, 1
  store i32 %72, ptr %70, align 4, !tbaa !39
  %73 = load ptr, ptr %49, align 8, !tbaa !24
  call void @free_filespec(ptr noundef %73) #10
  %74 = load ptr, ptr %spec.select24.i, align 8, !tbaa !14
  call void @free_filespec(ptr noundef %74) #10
  call void @free(ptr noundef nonnull %spec.select.i) #10
  call void @free(ptr noundef nonnull %spec.select24.i) #10
  %75 = load ptr, ptr @diff_queued_diff, align 8, !tbaa !11
  %76 = getelementptr inbounds nuw ptr, ptr %75, i64 %indvars.iv52
  store ptr null, ptr %76, align 8, !tbaa !12
  br label %79

77:                                               ; preds = %24, %30, %39
  %indvars.iv.next53 = add nuw nsw i64 %indvars.iv52, 1
  %exitcond.not = icmp eq i64 %indvars.iv.next53, %wide.trip.count
  br i1 %exitcond.not, label %._crit_edge, label %24, !llvm.loop !40

._crit_edge:                                      ; preds = %77, %.preheader
  call void @diff_q(ptr noundef nonnull %1, ptr noundef nonnull %7) #10
  br label %79

78:                                               ; preds = %12, %8
  call void @diff_q(ptr noundef nonnull %1, ptr noundef nonnull %7) #10
  br label %79

79:                                               ; preds = %.thread, %._crit_edge, %78, %.lr.ph46
  %indvars.iv.next56 = add nuw nsw i64 %indvars.iv55, 1
  %80 = load i32, ptr getelementptr inbounds nuw (i8, ptr @diff_queued_diff, i64 12), align 4, !tbaa !4
  %81 = sext i32 %80 to i64
  %82 = icmp slt i64 %indvars.iv.next56, %81
  %indvars.iv.next = add nuw nsw i64 %indvars.iv, 1
  br i1 %82, label %.lr.ph46, label %._crit_edge47, !llvm.loop !41

._crit_edge47:                                    ; preds = %79, %0
  %83 = load ptr, ptr @diff_queued_diff, align 8, !tbaa !11
  call void @free(ptr noundef %83) #10
  call void @llvm.memcpy.p0.p0.i64(ptr noundef nonnull align 8 dereferenceable(16) @diff_queued_diff, ptr noundef nonnull align 8 dereferenceable(16) %1, i64 16, i1 false), !tbaa.struct !36
  call void @llvm.lifetime.end.p0(i64 16, ptr nonnull %1) #10
  ret void
}